target datalayout = "e-m:e-p270:32:32-p271:32:32-p272:64:64-i64:64-i128:128-f80:128-n8:16:32:64-S128"
target triple = "x86_64-pc-linux-gnu"

%struct.anon = type { i32, i32, i32, i32, i32, i32, i32, %struct.replaygain_synthesis_spec_t, i32, i32, i32, i32, i32, i32, i64, i32, i32, i32, i32, i32, i32, i32, i32, i32, i32, i32, i32, i32, i32, i32, i32, ptr, ptr, %struct.analysis_options, i32, i64, [64 x %struct.compression_setting_t], i32, ptr, ptr, ptr, i32, i32, i32, i32, i32, i64, [5000 x i8], i32, ptr, i32, i32, i32, i32, i32, ptr, ptr, [64 x ptr], i32, %struct.anon.0 }
%struct.replaygain_synthesis_spec_t = type { i32, i32, i32, i32, double }
%struct.analysis_options = type { i32, i32 }
%struct.compression_setting_t = type { i32, %union.anon }
%union.anon = type { ptr }
%struct.anon.0 = type { i32, i32, i32, i32 }

@.str = private unnamed_addr constant [1 x i8] zeroinitializer, align 1
@option_values = internal global %struct.anon zeroinitializer, align 8
@.str.43 = private unnamed_addr constant [2 x i8] c"-\00", align 1
@get_outfilename.buffer = internal global [4096 x i8] zeroinitializer, align 16

; Function Attrs: nounwind sspstrong uwtable
define internal ptr @get_outfilename(ptr noundef %0, ptr noundef %1) #0 {
  %3 = alloca ptr, align 8
  %4 = alloca ptr, align 8
  %5 = alloca ptr, align 8
  %6 = alloca ptr, align 8
  %7 = alloca i32, align 4
  store ptr %0, ptr %4, align 8, !tbaa !92
  store ptr %1, ptr %5, align 8, !tbaa !92
  %8 = load ptr, ptr getelementptr inbounds nuw (%struct.anon, ptr @option_values, i32 0, i32 31), align 8, !tbaa !59
  %9 = icmp eq ptr null, %8
  br i1 %9, label %10, label %59

10:                                               ; preds = %2
  %11 = load ptr, ptr %4, align 8, !tbaa !92
  %12 = call i32 @strcmp(ptr noundef %11, ptr noundef @.str.43) #19
  %13 = icmp eq i32 0, %12
  br i1 %13, label %17, label %14

14:                                               ; preds = %10
  %15 = load i32, ptr getelementptr inbounds nuw (%struct.anon, ptr @option_values, i32 0, i32 15), align 8, !tbaa !43
  %16 = icmp ne i32 %15, 0
  br i1 %16, label %17, label %18

17:                                               ; preds = %14, %10
  store i8 45, ptr @get_outfilename.buffer, align 16, !tbaa !68
  store i8 0, ptr getelementptr inbounds ([4096 x i8], ptr @get_outfilename.buffer, i64 0, i64 1), align 1, !tbaa !68
  br label %58

18:                                               ; preds = %14
  call void @llvm.lifetime.start.p0(i64 8, ptr %6) #17
  %19 = load ptr, ptr getelementptr inbounds nuw (%struct.anon, ptr @option_values, i32 0, i32 32), align 8, !tbaa !60
  %20 = icmp ne ptr %19, null
  br i1 %20, label %21, label %23

21:                                               ; preds = %18
  %22 = load ptr, ptr getelementptr inbounds nuw (%struct.anon, ptr @option_values, i32 0, i32 32), align 8, !tbaa !60
  br label %24

23:                                               ; preds = %18
  br label %24

24:                                               ; preds = %23, %21
  %25 = phi ptr [ %22, %21 ], [ @.str, %23 ]
  %26 = call i64 @flac__strlcpy(ptr noundef @get_outfilename.buffer, ptr noundef %25, i64 noundef 4096)
  %27 = icmp uge i64 %26, 4096
  br i1 %27, label %28, label %29

28:                                               ; preds = %24
  store ptr null, ptr %3, align 8
  store i32 1, ptr %7, align 4
  br label %55

29:                                               ; preds = %24
  %30 = load ptr, ptr %4, align 8, !tbaa !92
  %31 = call i64 @flac__strlcat(ptr noundef @get_outfilename.buffer, ptr noundef %30, i64 noundef 4096)
  %32 = icmp uge i64 %31, 4096
  br i1 %32, label %33, label %34

33:                                               ; preds = %29
  store ptr null, ptr %3, align 8
  store i32 1, ptr %7, align 4
  br label %55

34:                                               ; preds = %29
  %35 = call ptr @strrchr(ptr noundef @get_outfilename.buffer, i32 noundef 46) #19
  store ptr %35, ptr %6, align 8, !tbaa !92
  %36 = icmp eq ptr null, %35
  br i1 %36, label %41, label %37

37:                                               ; preds = %34
  %38 = load ptr, ptr %6, align 8, !tbaa !92
  %39 = call ptr @strchr(ptr noundef %38, i32 noundef 47) #19
  %40 = icmp ne ptr %39, null
  br i1 %40, label %41, label %47

41:                                               ; preds = %37, %34
  %42 = load ptr, ptr %5, align 8, !tbaa !92
  %43 = call i64 @flac__strlcat(ptr noundef @get_outfilename.buffer, ptr noundef %42, i64 noundef 4096)
  %44 = icmp uge i64 %43, 4096
  br i1 %44, label %45, label %46

45:                                               ; preds = %41
  store ptr null, ptr %3, align 8
  store i32 1, ptr %7, align 4
  br label %55

46:                                               ; preds = %41
  br label %54

47:                                               ; preds = %37
  %48 = load ptr, ptr %6, align 8, !tbaa !92
  store i8 0, ptr %48, align 1, !tbaa !68
  %49 = load ptr, ptr %5, align 8, !tbaa !92
  %50 = call i64 @flac__strlcat(ptr noundef @get_outfilename.buffer, ptr noundef %49, i64 noundef 4096)
  %51 = icmp uge i64 %50, 4096
  br i1 %51, label %52, label %53

52:                                               ; preds = %47
  store ptr null, ptr %3, align 8
  store i32 1, ptr %7, align 4
  br label %55

53:                                               ; preds = %47
  br label %54

54:                                               ; preds = %53, %46
  store i32 0, ptr %7, align 4
  br label %55

55:                                               ; preds = %54, %52, %45, %33, %28
  call void @llvm.lifetime.end.p0(i64 8, ptr %6) #17
  %56 = load i32, ptr %7, align 4
  switch i32 %56, label %63 [
    i32 0, label %57
    i32 1, label %61
  ]

57:                                               ; preds = %55
  br label %58

58:                                               ; preds = %57, %17
  store ptr @get_outfilename.buffer, ptr %3, align 8
  br label %61

59:                                               ; preds = %2
  %60 = load ptr, ptr getelementptr inbounds nuw (%struct.anon, ptr @option_values, i32 0, i32 31), align 8, !tbaa !59
  store ptr %60, ptr %3, align 8
  br label %61

61:                                               ; preds = %59, %58, %55
  %62 = load ptr, ptr %3, align 8
  ret ptr %62

63:                                               ; preds = %55
  unreachable
}