; Function Attrs: nounwind sspstrong uwtable
define internal fastcc ptr @get_outfilename(ptr noundef %0, ptr noundef %1) unnamed_addr #0 {
  %3 = load ptr, ptr getelementptr inbounds nuw (i8, ptr @option_values, i64 152), align 8, !tbaa !77
  %4 = icmp eq ptr %3, null
  br i1 %4, label %sub_0, label %32

sub_0:                                            ; preds = %2
  %5 = load i8, ptr %0, align 1
  %.not14 = icmp eq i8 %5, 45
  br i1 %.not14, label %sub_1, label %.tail

sub_1:                                            ; preds = %sub_0
  %6 = getelementptr inbounds nuw i8, ptr %0, i64 1
  %7 = load i8, ptr %6, align 1
  %8 = icmp eq i8 %7, 0
  br label %.tail

.tail:                                            ; preds = %sub_0, %sub_1
  %9 = phi i1 [ false, %sub_0 ], [ %8, %sub_1 ]
  %10 = load i32, ptr getelementptr inbounds nuw (i8, ptr @option_values, i64 88), align 8
  %11 = icmp ne i32 %10, 0
  %or.cond = select i1 %9, i1 true, i1 %11
  br i1 %or.cond, label %12, label %13

12:                                               ; preds = %.tail
  store i8 45, ptr @get_outfilename.buffer, align 16, !tbaa !31
  store i8 0, ptr getelementptr inbounds nuw (i8, ptr @get_outfilename.buffer, i64 1), align 1, !tbaa !31
  br label %32

13:                                               ; preds = %.tail
  %14 = load ptr, ptr getelementptr inbounds nuw (i8, ptr @option_values, i64 160), align 8, !tbaa !95
  %.not = icmp eq ptr %14, null
  %15 = select i1 %.not, ptr @.str, ptr %14
  %16 = tail call i64 @flac__strlcpy(ptr noundef nonnull @get_outfilename.buffer, ptr noundef nonnull %15, i64 noundef 4096) #21
  %17 = icmp ugt i64 %16, 4095
  br i1 %17, label %.thread, label %18

18:                                               ; preds = %13
  %19 = tail call i64 @flac__strlcat(ptr noundef nonnull @get_outfilename.buffer, ptr noundef nonnull %0, i64 noundef 4096) #21
  %20 = icmp ugt i64 %19, 4095
  br i1 %20, label %.thread, label %21

21:                                               ; preds = %18
  %22 = tail call ptr @strrchr(ptr noundef nonnull dereferenceable(1) @get_outfilename.buffer, i32 noundef 46) #23
  %23 = icmp eq ptr %22, null
  br i1 %23, label %26, label %24

24:                                               ; preds = %21
  %25 = tail call ptr @strchr(ptr noundef nonnull dereferenceable(1) %22, i32 noundef 47) #23
  %.not11 = icmp eq ptr %25, null
  br i1 %.not11, label %29, label %26

26:                                               ; preds = %24, %21
  %27 = tail call i64 @flac__strlcat(ptr noundef nonnull @get_outfilename.buffer, ptr noundef %1, i64 noundef 4096) #21
  %28 = icmp ugt i64 %27, 4095
  br i1 %28, label %.thread, label %32

29:                                               ; preds = %24
  store i8 0, ptr %22, align 1, !tbaa !31
  %30 = tail call i64 @flac__strlcat(ptr noundef nonnull @get_outfilename.buffer, ptr noundef %1, i64 noundef 4096) #21
  %31 = icmp ugt i64 %30, 4095
  br i1 %31, label %.thread, label %32

.thread:                                          ; preds = %13, %18, %26, %29
  br label %32

32:                                               ; preds = %12, %26, %29, %.thread, %2
  %.1 = phi ptr [ %3, %2 ], [ null, %.thread ], [ @get_outfilename.buffer, %29 ], [ @get_outfilename.buffer, %26 ], [ @get_outfilename.buffer, %12 ]
  ret ptr %.1
}